target datalayout = "e-m:e-p270:32:32-p271:32:32-p272:64:64-i64:64-i128:128-f80:128-n8:16:32:64-S128"
target triple = "x86_64-pc-linux-gnu"

%"class.net::QuicTime::Delta" = type { %"class.base::TimeDelta", i64 }
%"class.base::TimeDelta" = type { i64 }
%"class.net::(anonymous namespace)::ForceHolAckListener" = type <{ %"class.net::QuicAckListenerInterface.base", [4 x i8], %class.scoped_refptr.175, i32, [4 x i8] }>
%"class.net::QuicAckListenerInterface.base" = type <{ ptr, %"class.base::RefCounted" }>
%"class.base::RefCounted" = type { %"class.base::subtle::RefCountedBase" }
%"class.base::subtle::RefCountedBase" = type { i32 }
%class.scoped_refptr.175 = type { ptr }

; Function Attrs: mustprogress nounwind uwtable
define linkonce_odr noundef ptr @_ZNK13scoped_refptrIN3net24QuicAckListenerInterfaceEEptEv(ptr noundef nonnull align 8 dereferenceable(8) %0) #0 comdat align 2 {
  %2 = alloca ptr, align 8
  store ptr %0, ptr %2, align 8, !tbaa !496
  %3 = load ptr, ptr %2, align 8
  %4 = getelementptr inbounds nuw %class.scoped_refptr.175, ptr %3, i32 0, i32 0
  %5 = load ptr, ptr %4, align 8, !tbaa !498
  ret ptr %5
}

; Function Attrs: inlinehint mustprogress nounwind uwtable
define linkonce_odr noundef nonnull align 4 dereferenceable(4) ptr @_ZSt3minIiERKT_S2_S2_(ptr noundef nonnull align 4 dereferenceable(4) %0, ptr noundef nonnull align 4 dereferenceable(4) %1) #9 comdat {
  %3 = alloca ptr, align 8
  %4 = alloca ptr, align 8
  %5 = alloca ptr, align 8
  store ptr %0, ptr %4, align 8, !tbaa !504
  store ptr %1, ptr %5, align 8, !tbaa !504
  %6 = load ptr, ptr %5, align 8, !tbaa !504
  %7 = load i32, ptr %6, align 4, !tbaa !202
  %8 = load ptr, ptr %4, align 8, !tbaa !504
  %9 = load i32, ptr %8, align 4, !tbaa !202
  %10 = icmp slt i32 %7, %9
  br i1 %10, label %11, label %13

11:                                               ; preds = %2
  %12 = load ptr, ptr %5, align 8, !tbaa !504
  store ptr %12, ptr %3, align 8
  br label %15

13:                                               ; preds = %2
  %14 = load ptr, ptr %4, align 8, !tbaa !504
  store ptr %14, ptr %3, align 8
  br label %15

15:                                               ; preds = %13, %11
  %16 = load ptr, ptr %3, align 8
  ret ptr %16
}

; Function Attrs: mustprogress uwtable
define internal void @_ZN3net12_GLOBAL__N_119ForceHolAckListener13OnPacketAckedEiNS_8QuicTime5DeltaE(ptr noundef nonnull align 8 dereferenceable(28) %0, i32 noundef %1, i64 %2, i64 %3) unnamed_addr #2 align 2 {
  %5 = alloca %"class.net::QuicTime::Delta", align 8
  %6 = alloca ptr, align 8
  %7 = alloca i32, align 4
  %8 = alloca i32, align 4
  %9 = alloca %"class.net::QuicTime::Delta", align 8
  %10 = getelementptr inbounds nuw { i64, i64 }, ptr %5, i32 0, i32 0
  store i64 %2, ptr %10, align 8
  %11 = getelementptr inbounds nuw { i64, i64 }, ptr %5, i32 0, i32 1
  store i64 %3, ptr %11, align 8
  store ptr %0, ptr %6, align 8, !tbaa !289
  store i32 %1, ptr %7, align 4, !tbaa !202
  %12 = load ptr, ptr %6, align 8
  %13 = getelementptr inbounds nuw %"class.net::(anonymous namespace)::ForceHolAckListener", ptr %12, i32 0, i32 3
  %14 = load i32, ptr %13, align 8, !tbaa !290
  %15 = icmp sgt i32 %14, 0
  br i1 %15, label %16, label %27

16:                                               ; preds = %4
  call void @llvm.lifetime.start.p0(i64 4, ptr %8) #18
  %17 = getelementptr inbounds nuw %"class.net::(anonymous namespace)::ForceHolAckListener", ptr %12, i32 0, i32 3
  %18 = call noundef nonnull align 4 dereferenceable(4) ptr @_ZSt3minIiERKT_S2_S2_(ptr noundef nonnull align 4 dereferenceable(4) %17, ptr noundef nonnull align 4 dereferenceable(4) %7)
  %19 = load i32, ptr %18, align 4, !tbaa !202
  store i32 %19, ptr %8, align 4, !tbaa !202
  %20 = load i32, ptr %8, align 4, !tbaa !202
  %21 = getelementptr inbounds nuw %"class.net::(anonymous namespace)::ForceHolAckListener", ptr %12, i32 0, i32 3
  %22 = load i32, ptr %21, align 8, !tbaa !290
  %23 = sub nsw i32 %22, %20
  store i32 %23, ptr %21, align 8, !tbaa !290
  %24 = load i32, ptr %8, align 4, !tbaa !202
  %25 = load i32, ptr %7, align 4, !tbaa !202
  %26 = sub nsw i32 %25, %24
  store i32 %26, ptr %7, align 4, !tbaa !202
  call void @llvm.lifetime.end.p0(i64 4, ptr %8) #18
  br label %27

27:                                               ; preds = %16, %4
  %28 = getelementptr inbounds nuw %"class.net::(anonymous namespace)::ForceHolAckListener", ptr %12, i32 0, i32 2
  %29 = call noundef ptr @_ZNK13scoped_refptrIN3net24QuicAckListenerInterfaceEEptEv(ptr noundef nonnull align 8 dereferenceable(8) %28)
  %30 = load i32, ptr %7, align 4, !tbaa !202
  call void @llvm.memcpy.p0.p0.i64(ptr align 8 %9, ptr align 8 %5, i64 16, i1 false), !tbaa.struct !308
  %31 = getelementptr inbounds nuw { i64, i64 }, ptr %9, i32 0, i32 0
  %32 = load i64, ptr %31, align 8
  %33 = getelementptr inbounds nuw { i64, i64 }, ptr %9, i32 0, i32 1
  %34 = load i64, ptr %33, align 8
  %35 = load ptr, ptr %29, align 8, !tbaa !8
  %36 = getelementptr inbounds ptr, ptr %35, i64 0
  %37 = load ptr, ptr %36, align 8
  call void %37(ptr noundef nonnull align 8 dereferenceable(12) %29, i32 noundef %30, i64 %32, i64 %34)
  ret void
}