; Function Attrs: mustprogress uwtable
define internal void @_ZN3net12_GLOBAL__N_119ForceHolAckListener13OnPacketAckedEiNS_8QuicTime5DeltaE(ptr noundef nonnull align 8 captures(none) dereferenceable(28) %0, i32 noundef %1, i64 %2, i64 %3) unnamed_addr #4 align 2 {
  %5 = getelementptr inbounds nuw i8, ptr %0, i64 24
  %6 = load i32, ptr %5, align 8, !tbaa !364
  %7 = icmp sgt i32 %6, 0
  br i1 %7, label %8, label %11

8:                                                ; preds = %4
  %.sroa.speculated = tail call i32 @llvm.smin.i32(i32 %1, i32 %6)
  %9 = sub nsw i32 %6, %.sroa.speculated
  store i32 %9, ptr %5, align 8, !tbaa !364
  %10 = sub nsw i32 %1, %.sroa.speculated
  br label %11

11:                                               ; preds = %8, %4
  %.0 = phi i32 [ %10, %8 ], [ %1, %4 ]
  %12 = getelementptr inbounds nuw i8, ptr %0, i64 16
  %13 = load ptr, ptr %12, align 8, !tbaa !359
  %14 = load ptr, ptr %13, align 8, !tbaa !3
  %15 = load ptr, ptr %14, align 8
  tail call void %15(ptr noundef nonnull align 8 dereferenceable(12) %13, i32 noundef %.0, i64 %2, i64 %3)
  ret void
}